target datalayout = "e-m:e-p270:32:32-p271:32:32-p272:64:64-i64:64-i128:128-f80:128-n8:16:32:64-S128"
target triple = "x86_64-pc-linux-gnu"

%struct.PJconsts = type { ptr, ptr, ptr, ptr, ptr, ptr, ptr, ptr, ptr, ptr, ptr, ptr, i32, ptr, ptr, ptr, ptr, ptr, ptr, ptr, ptr, double, double, double, double, double, double, double, double, double, double, double, double, double, double, double, double, double, double, double, double, double, double, i32, i32, i32, i32, i32, i32, i32, i32, i32, i32, i32, ptr, ptr, ptr, ptr, ptr, ptr, double, double, double, double, double, double, double, double, double, double, double, i32, [7 x double], i32, ptr, ptr, double, double, i32, [4 x i8], %"class.std::shared_ptr", i8, double, i8, %"class.std::__cxx11::basic_string", %"class.std::__cxx11::basic_string", %"class.std::__cxx11::basic_string", i8, %"class.std::vector", i32, %"class.std::vector.3", i32, i8, i8, i8, ptr }
%"class.std::shared_ptr" = type { %"class.std::__shared_ptr" }
%"class.std::__shared_ptr" = type { ptr, %"class.std::__shared_count" }
%"class.std::__shared_count" = type { ptr }
%"class.std::__cxx11::basic_string" = type { %"struct.std::__cxx11::basic_string<char>::_Alloc_hider", i64, %union.anon }
%"struct.std::__cxx11::basic_string<char>::_Alloc_hider" = type { ptr }
%union.anon = type { i64, [8 x i8] }
%"class.std::vector" = type { %"struct.std::_Vector_base" }
%"struct.std::_Vector_base" = type { %"struct.std::_Vector_base<osgeo::proj::operation::GridDescription, std::allocator<osgeo::proj::operation::GridDescription>>::_Vector_impl" }
%"struct.std::_Vector_base<osgeo::proj::operation::GridDescription, std::allocator<osgeo::proj::operation::GridDescription>>::_Vector_impl" = type { %"struct.std::_Vector_base<osgeo::proj::operation::GridDescription, std::allocator<osgeo::proj::operation::GridDescription>>::_Vector_impl_data" }
%"struct.std::_Vector_base<osgeo::proj::operation::GridDescription, std::allocator<osgeo::proj::operation::GridDescription>>::_Vector_impl_data" = type { ptr, ptr, ptr }
%"class.std::vector.3" = type { %"struct.std::_Vector_base.4" }
%"struct.std::_Vector_base.4" = type { %"struct.std::_Vector_base<PJCoordOperation, std::allocator<PJCoordOperation>>::_Vector_impl" }
%"struct.std::_Vector_base<PJCoordOperation, std::allocator<PJCoordOperation>>::_Vector_impl" = type { %"struct.std::_Vector_base<PJCoordOperation, std::allocator<PJCoordOperation>>::_Vector_impl_data" }
%"struct.std::_Vector_base<PJCoordOperation, std::allocator<PJCoordOperation>>::_Vector_impl_data" = type { ptr, ptr, ptr }
%"struct.(anonymous namespace)::pj_bonne_data" = type { double, double, double, double, ptr }
%struct.PJ_LP = type { double, double }
%struct.PJ_XY = type { double, double }

; Function Attrs: mustprogress uwtable
define internal { double, double } @_ZL15bonne_e_forward5PJ_LPP8PJconsts(double %0, double %1, ptr noundef %2) #0 {
  %4 = alloca %struct.PJ_XY, align 8
  %5 = alloca %struct.PJ_LP, align 8
  %6 = alloca ptr, align 8
  %7 = alloca ptr, align 8
  %8 = alloca double, align 8
  %9 = alloca double, align 8
  %10 = alloca double, align 8
  %11 = getelementptr inbounds nuw { double, double }, ptr %5, i32 0, i32 0
  store double %0, ptr %11, align 8
  %12 = getelementptr inbounds nuw { double, double }, ptr %5, i32 0, i32 1
  store double %1, ptr %12, align 8
  store ptr %2, ptr %6, align 8, !tbaa !3
  call void @llvm.memset.p0.i64(ptr align 8 %4, i8 0, i64 16, i1 false)
  call void @llvm.lifetime.start.p0(i64 8, ptr %7) #8
  %13 = load ptr, ptr %6, align 8, !tbaa !3
  %14 = getelementptr inbounds nuw %struct.PJconsts, ptr %13, i32 0, i32 11
  %15 = load ptr, ptr %14, align 8, !tbaa !43
  store ptr %15, ptr %7, align 8, !tbaa !41
  call void @llvm.lifetime.start.p0(i64 8, ptr %8) #8
  call void @llvm.lifetime.start.p0(i64 8, ptr %9) #8
  call void @llvm.lifetime.start.p0(i64 8, ptr %10) #8
  %16 = getelementptr inbounds nuw %struct.PJ_LP, ptr %5, i32 0, i32 1
  %17 = load double, ptr %16, align 8, !tbaa !64
  %18 = call double @sin(double noundef %17) #8, !tbaa !54
  store double %18, ptr %9, align 8, !tbaa !56
  %19 = getelementptr inbounds nuw %struct.PJ_LP, ptr %5, i32 0, i32 1
  %20 = load double, ptr %19, align 8, !tbaa !64
  %21 = call double @cos(double noundef %20) #8, !tbaa !54
  store double %21, ptr %10, align 8, !tbaa !56
  %22 = load ptr, ptr %7, align 8, !tbaa !41
  %23 = getelementptr inbounds nuw %"struct.(anonymous namespace)::pj_bonne_data", ptr %22, i32 0, i32 2
  %24 = load double, ptr %23, align 8, !tbaa !55
  %25 = load ptr, ptr %7, align 8, !tbaa !41
  %26 = getelementptr inbounds nuw %"struct.(anonymous namespace)::pj_bonne_data", ptr %25, i32 0, i32 3
  %27 = load double, ptr %26, align 8, !tbaa !57
  %28 = fadd double %24, %27
  %29 = getelementptr inbounds nuw %struct.PJ_LP, ptr %5, i32 0, i32 1
  %30 = load double, ptr %29, align 8, !tbaa !64
  %31 = load double, ptr %9, align 8, !tbaa !56
  %32 = load double, ptr %10, align 8, !tbaa !56
  %33 = load ptr, ptr %7, align 8, !tbaa !41
  %34 = getelementptr inbounds nuw %"struct.(anonymous namespace)::pj_bonne_data", ptr %33, i32 0, i32 4
  %35 = load ptr, ptr %34, align 8, !tbaa !53
  %36 = call noundef double @_Z7pj_mlfndddPKd(double noundef %30, double noundef %31, double noundef %32, ptr noundef %35)
  %37 = fsub double %28, %36
  store double %37, ptr %8, align 8, !tbaa !56
  %38 = load double, ptr %8, align 8, !tbaa !56
  %39 = call double @llvm.fabs.f64(double %38)
  %40 = fcmp ogt double %39, 1.000000e-10
  br i1 %40, label %41, label %72

41:                                               ; preds = %3
  %42 = load double, ptr %10, align 8, !tbaa !56
  %43 = getelementptr inbounds nuw %struct.PJ_LP, ptr %5, i32 0, i32 0
  %44 = load double, ptr %43, align 8, !tbaa !66
  %45 = fmul double %42, %44
  %46 = load double, ptr %8, align 8, !tbaa !56
  %47 = load ptr, ptr %6, align 8, !tbaa !3
  %48 = getelementptr inbounds nuw %struct.PJconsts, ptr %47, i32 0, i32 27
  %49 = load double, ptr %48, align 8, !tbaa !51
  %50 = load double, ptr %9, align 8, !tbaa !56
  %51 = fmul double %49, %50
  %52 = load double, ptr %9, align 8, !tbaa !56
  %53 = fneg double %51
  %54 = call double @llvm.fmuladd.f64(double %53, double %52, double 1.000000e+00)
  %55 = call double @sqrt(double noundef %54) #8, !tbaa !54
  %56 = fmul double %46, %55
  %57 = fdiv double %45, %56
  store double %57, ptr %9, align 8, !tbaa !56
  %58 = load double, ptr %8, align 8, !tbaa !56
  %59 = load double, ptr %9, align 8, !tbaa !56
  %60 = call double @sin(double noundef %59) #8, !tbaa !54
  %61 = fmul double %58, %60
  %62 = getelementptr inbounds nuw %struct.PJ_XY, ptr %4, i32 0, i32 0
  store double %61, ptr %62, align 8, !tbaa !63
  %63 = load ptr, ptr %7, align 8, !tbaa !41
  %64 = getelementptr inbounds nuw %"struct.(anonymous namespace)::pj_bonne_data", ptr %63, i32 0, i32 2
  %65 = load double, ptr %64, align 8, !tbaa !55
  %66 = load double, ptr %8, align 8, !tbaa !56
  %67 = load double, ptr %9, align 8, !tbaa !56
  %68 = call double @cos(double noundef %67) #8, !tbaa !54
  %69 = fneg double %66
  %70 = call double @llvm.fmuladd.f64(double %69, double %68, double %65)
  %71 = getelementptr inbounds nuw %struct.PJ_XY, ptr %4, i32 0, i32 1
  store double %70, ptr %71, align 8, !tbaa !61
  br label %75

72:                                               ; preds = %3
  %73 = getelementptr inbounds nuw %struct.PJ_XY, ptr %4, i32 0, i32 0
  store double 0.000000e+00, ptr %73, align 8, !tbaa !63
  %74 = getelementptr inbounds nuw %struct.PJ_XY, ptr %4, i32 0, i32 1
  store double 0.000000e+00, ptr %74, align 8, !tbaa !61
  br label %75

75:                                               ; preds = %72, %41
  call void @llvm.lifetime.end.p0(i64 8, ptr %10) #8
  call void @llvm.lifetime.end.p0(i64 8, ptr %9) #8
  call void @llvm.lifetime.end.p0(i64 8, ptr %8) #8
  call void @llvm.lifetime.end.p0(i64 8, ptr %7) #8
  %76 = load { double, double }, ptr %4, align 8
  ret { double, double } %76
}