; Function Attrs: mustprogress uwtable
define internal { double, double } @_ZL15bonne_e_forward5PJ_LPP8PJconsts(double %0, double %1, ptr noundef readonly captures(none) %2) #0 {
  %4 = getelementptr inbounds nuw i8, ptr %2, i64 88
  %5 = load ptr, ptr %4, align 8, !tbaa !40
  %6 = tail call double @sin(double noundef %1) #8, !tbaa !50
  %7 = tail call double @cos(double noundef %1) #8, !tbaa !50
  %8 = getelementptr inbounds nuw i8, ptr %5, i64 16
  %9 = load double, ptr %8, align 8, !tbaa !51
  %10 = getelementptr inbounds nuw i8, ptr %5, i64 24
  %11 = load double, ptr %10, align 8, !tbaa !52
  %12 = fadd double %9, %11
  %13 = getelementptr inbounds nuw i8, ptr %5, i64 32
  %14 = load ptr, ptr %13, align 8, !tbaa !47
  %15 = tail call noundef double @_Z7pj_mlfndddPKd(double noundef %1, double noundef %6, double noundef %7, ptr noundef %14)
  %16 = fsub double %12, %15
  %17 = tail call double @llvm.fabs.f64(double %16)
  %18 = fcmp ogt double %17, 1.000000e-10
  br i1 %18, label %19, label %35

19:                                               ; preds = %3
  %20 = fmul double %0, %7
  %21 = getelementptr inbounds nuw i8, ptr %2, i64 216
  %22 = load double, ptr %21, align 8, !tbaa !48
  %23 = fneg double %6
  %24 = fmul double %22, %23
  %25 = tail call double @llvm.fmuladd.f64(double %24, double %6, double 1.000000e+00)
  %26 = tail call double @sqrt(double noundef %25) #8, !tbaa !50
  %27 = fmul double %16, %26
  %28 = fdiv double %20, %27
  %29 = tail call double @sin(double noundef %28) #8, !tbaa !50
  %30 = fmul double %16, %29
  %31 = load double, ptr %8, align 8, !tbaa !51
  %32 = tail call double @cos(double noundef %28) #8, !tbaa !50
  %33 = fneg double %16
  %34 = tail call double @llvm.fmuladd.f64(double %33, double %32, double %31)
  br label %35

35:                                               ; preds = %3, %19
  %.sroa.4.0 = phi double [ %34, %19 ], [ 0.000000e+00, %3 ]
  %.sroa.019.0 = phi double [ %30, %19 ], [ 0.000000e+00, %3 ]
  %.fca.0.insert = insertvalue { double, double } poison, double %.sroa.019.0, 0
  %.fca.1.insert = insertvalue { double, double } %.fca.0.insert, double %.sroa.4.0, 1
  ret { double, double } %.fca.1.insert
}